; ModuleID = '11/422.c'
source_filename = "11/422.c"
target datalayout = "e-m:e-p270:32:32-p271:32:32-p272:64:64-i64:64-f80:128-n8:16:32:64-S128"
target triple = "x86_64-pc-linux-gnu"

@__const.main.x = private unnamed_addr constant [12 x i32] [i32 31, i32 28, i32 31, i32 30, i32 31, i32 30, i32 31, i32 31, i32 30, i32 31, i32 30, i32 31], align 16
@__const.main.y = private unnamed_addr constant [12 x i32] [i32 31, i32 29, i32 31, i32 30, i32 31, i32 30, i32 31, i32 31, i32 30, i32 31, i32 30, i32 31], align 16
@.str = private unnamed_addr constant [9 x i8] c"%d %d %d\00", align 1
@.str.1 = private unnamed_addr constant [3 x i8] c"%d\00", align 1

; Function Attrs: noinline nounwind uwtable
define dso_local i32 @main() #0 {
  %1 = alloca i32, align 4
  %2 = alloca [12 x i32], align 16
  %3 = alloca [12 x i32], align 16
  %4 = alloca i32, align 4
  %5 = alloca i32, align 4
  %6 = alloca i32, align 4
  %7 = alloca i32, align 4
  %8 = alloca i32, align 4
  store i32 0, i32* %1, align 4
  %9 = bitcast [12 x i32]* %2 to i8*
  call void @llvm.memcpy.p0i8.p0i8.i64(i8* align 16 %9, i8* align 16 bitcast ([12 x i32]* @__const.main.x to i8*), i64 48, i1 false)
  %10 = bitcast [12 x i32]* %3 to i8*
  call void @llvm.memcpy.p0i8.p0i8.i64(i8* align 16 %10, i8* align 16 bitcast ([12 x i32]* @__const.main.y to i8*), i64 48, i1 false)
  store i32 0, i32* %7, align 4
  %11 = call i32 (i8*, ...) @__isoc99_scanf(i8* getelementptr inbounds ([9 x i8], [9 x i8]* @.str, i64 0, i64 0), i32* %4, i32* %5, i32* %6)
  %12 = load i32, i32* %4, align 4
  %13 = srem i32 %12, 4
  %14 = icmp eq i32 %13, 0
  br i1 %14, label %15, label %19

15:                                               ; preds = %0
  %16 = load i32, i32* %4, align 4
  %17 = srem i32 %16, 100
  %18 = icmp ne i32 %17, 0
  br i1 %18, label %23, label %19

19:                                               ; preds = %15, %0
  %20 = load i32, i32* %4, align 4
  %21 = srem i32 %20, 400
  %22 = icmp eq i32 %21, 0
  br i1 %22, label %23, label %44

23:                                               ; preds = %19, %15
  store i32 1, i32* %8, align 4
  br label %24

24:                                               ; preds = %37, %23
  %25 = load i32, i32* %8, align 4
  %26 = load i32, i32* %5, align 4
  %27 = sub nsw i32 %26, 1
  %28 = icmp sle i32 %25, %27
  br i1 %28, label %29, label %40

29:                                               ; preds = %24
  %30 = load i32, i32* %8, align 4
  %31 = sub nsw i32 %30, 1
  %32 = sext i32 %31 to i64
  %33 = getelementptr inbounds [12 x i32], [12 x i32]* %3, i64 0, i64 %32
  %34 = load i32, i32* %33, align 4
  %35 = load i32, i32* %7, align 4
  %36 = add nsw i32 %35, %34
  store i32 %36, i32* %7, align 4
  br label %37

37:                                               ; preds = %29
  %38 = load i32, i32* %8, align 4
  %39 = add nsw i32 %38, 1
  store i32 %39, i32* %8, align 4
  br label %24

40:                                               ; preds = %24
  %41 = load i32, i32* %7, align 4
  %42 = load i32, i32* %6, align 4
  %43 = add nsw i32 %41, %42
  store i32 %43, i32* %7, align 4
  br label %65

44:                                               ; preds = %19
  store i32 1, i32* %8, align 4
  br label %45

45:                                               ; preds = %58, %44
  %46 = load i32, i32* %8, align 4
  %47 = load i32, i32* %5, align 4
  %48 = sub nsw i32 %47, 1
  %49 = icmp sle i32 %46, %48
  br i1 %49, label %50, label %61

50:                                               ; preds = %45
  %51 = load i32, i32* %8, align 4
  %52 = sub nsw i32 %51, 1
  %53 = sext i32 %52 to i64
  %54 = getelementptr inbounds [12 x i32], [12 x i32]* %2, i64 0, i64 %53
  %55 = load i32, i32* %54, align 4
  %56 = load i32, i32* %7, align 4
  %57 = add nsw i32 %56, %55
  store i32 %57, i32* %7, align 4
  br label %58

58:                                               ; preds = %50
  %59 = load i32, i32* %8, align 4
  %60 = add nsw i32 %59, 1
  store i32 %60, i32* %8, align 4
  br label %45

61:                                               ; preds = %45
  %62 = load i32, i32* %7, align 4
  %63 = load i32, i32* %6, align 4
  %64 = add nsw i32 %62, %63
  store i32 %64, i32* %7, align 4
  br label %65

65:                                               ; preds = %61, %40
  %66 = load i32, i32* %7, align 4
  %67 = call i32 (i8*, ...) @printf(i8* getelementptr inbounds ([3 x i8], [3 x i8]* @.str.1, i64 0, i64 0), i32 %66)
  ret i32 0
}

; Function Attrs: argmemonly nounwind willreturn
declare void @llvm.memcpy.p0i8.p0i8.i64(i8* noalias nocapture writeonly, i8* noalias nocapture readonly, i64, i1 immarg) #1

declare dso_local i32 @__isoc99_scanf(i8*, ...) #2

declare dso_local i32 @printf(i8*, ...) #2


!llvm.module.flags = !{!0}
!llvm.ident = !{!1}

!0 = !{i32 1, !"wchar_size", i32 4}
!1 = !{!"clang version 10.0.0-4ubuntu1 "}
